; Function Attrs: nounwind uwtable
define internal noundef i32 @dissect_h248_T_transactionId(i1 noundef zeroext %0, ptr noundef %1, i32 noundef %2, ptr noundef readonly captures(none) %3, ptr noundef %4, i32 %5) #0 {
  %7 = alloca i32, align 4
  store i32 0, ptr %7, align 4
  %8 = getelementptr inbounds nuw i8, ptr %3, i64 16
  %9 = load ptr, ptr %8, align 8
  %10 = call fastcc i32 @dissect_h248_trx_id(i1 noundef zeroext %0, ptr noundef %9, ptr noundef %4, ptr noundef %1, i32 noundef %2, ptr noundef %7)
  %11 = load ptr, ptr getelementptr inbounds nuw (i8, ptr @curr_info, i64 16), align 8
  %12 = load i32, ptr %7, align 4
  %13 = load ptr, ptr %8, align 8
  %14 = load i32, ptr @keep_persistent_data, align 4
  %15 = tail call ptr @gcp_trx(ptr noundef %11, i32 noundef %12, i32 noundef 1, ptr noundef %13, i32 noundef %14)
  store ptr %15, ptr getelementptr inbounds nuw (i8, ptr @curr_info, i64 8), align 8
  store i32 0, ptr @error_code, align 4
  ret i32 %10
}